target datalayout = "e-m:e-p270:32:32-p271:32:32-p272:64:64-i64:64-i128:128-f80:128-n8:16:32:64-S128"
target triple = "x86_64-pc-linux-gnu"

%union.SourceSpan = type { i64 }
%struct.GenContext_ = type { i8, ptr, ptr, ptr, ptr, ptr, ptr, ptr, ptr, ptr, ptr, ptr, ptr, ptr, ptr, ptr, ptr, ptr, ptr, ptr, ptr, ptr, ptr, ptr, ptr, ptr, ptr, ptr, ptr, ptr, ptr, ptr, ptr, %struct.anon.85, i32, i32, %struct.DebugContext, ptr, ptr, ptr, %struct.BEValue, i8, %union.SourceSpan, ptr, ptr, ptr, ptr }
%struct.anon.85 = type { ptr, ptr, ptr }
%struct.DebugContext = type { i16, ptr, ptr, %struct.DebugFile_, ptr, ptr, ptr, ptr }
%struct.DebugFile_ = type { i16, ptr }
%struct.BEValue = type { i8, i32, ptr, ptr, ptr }
%struct.Type_ = type { i32, ptr, ptr, ptr, %union.anon.94, ptr, ptr, %union.anon.96 }
%union.anon.94 = type { ptr }
%union.anon.96 = type { %struct.TypeFunction }
%struct.TypeFunction = type { ptr, ptr, ptr }

@type_char = external global ptr, align 8
@type_usz = external global ptr, align 8

; Function Attrs: nounwind uwtable
define dso_local ptr @llvm_emit_memclear_size_align(ptr noundef %0, ptr noundef %1, i64 noundef %2, i32 noundef %3) #0 {
  %5 = alloca ptr, align 8
  %6 = alloca i32, align 4
  %7 = alloca ptr, align 8
  %8 = alloca ptr, align 8
  %9 = alloca i64, align 8
  %10 = alloca ptr, align 8
  %11 = alloca ptr, align 8
  %12 = alloca ptr, align 8
  %13 = alloca ptr, align 8
  %14 = alloca i64, align 8
  %15 = alloca i32, align 4
  store ptr %0, ptr %12, align 8
  store ptr %1, ptr %13, align 8
  store i64 %2, ptr %14, align 8
  store i32 %3, ptr %15, align 4
  %16 = load ptr, ptr %12, align 8
  %17 = getelementptr inbounds %struct.GenContext_, ptr %16, i32 0, i32 8
  %18 = load ptr, ptr %17, align 8
  %19 = load ptr, ptr %13, align 8
  %20 = load ptr, ptr %12, align 8
  %21 = load ptr, ptr @type_char, align 8
  store ptr %20, ptr %10, align 8
  store ptr %21, ptr %11, align 8
  %22 = load ptr, ptr %10, align 8
  %23 = load ptr, ptr %11, align 8
  %24 = call ptr @llvm_get_type(ptr noundef %22, ptr noundef %23) #7
  %25 = call ptr @LLVMConstNull(ptr noundef %24) #7
  %26 = load ptr, ptr %12, align 8
  %27 = load ptr, ptr @type_usz, align 8
  %28 = load i64, ptr %14, align 8
  store ptr %26, ptr %7, align 8
  store ptr %27, ptr %8, align 8
  store i64 %28, ptr %9, align 8
  %29 = load ptr, ptr %8, align 8
  %30 = call ptr @type_lowering(ptr noundef %29)
  store ptr %30, ptr %8, align 8
  %31 = load ptr, ptr %7, align 8
  %32 = load ptr, ptr %8, align 8
  %33 = call ptr @llvm_get_type(ptr noundef %31, ptr noundef %32) #7
  %34 = load i64, ptr %9, align 8
  %35 = load ptr, ptr %8, align 8
  store ptr %35, ptr %5, align 8
  %36 = load ptr, ptr %5, align 8
  %37 = load i32, ptr %36, align 8
  store i32 %37, ptr %6, align 4
  %38 = load i32, ptr %6, align 4
  %39 = icmp eq i32 %38, 31
  br i1 %39, label %40, label %45

40:                                               ; preds = %4
  %41 = load ptr, ptr %5, align 8
  %42 = getelementptr inbounds %struct.Type_, ptr %41, i32 0, i32 1
  %43 = load ptr, ptr %42, align 8
  %44 = load i32, ptr %43, align 8
  store i32 %44, ptr %6, align 4
  br label %45

45:                                               ; preds = %40, %4
  %46 = load i32, ptr %6, align 4
  %47 = icmp uge i32 %46, 3
  br i1 %47, label %48, label %51

48:                                               ; preds = %45
  %49 = load i32, ptr %6, align 4
  %50 = icmp ule i32 %49, 7
  br label %51

51:                                               ; preds = %48, %45
  %52 = phi i1 [ false, %45 ], [ %50, %48 ]
  %53 = zext i1 %52 to i32
  %54 = call ptr @LLVMConstInt(ptr noundef %33, i64 noundef %34, i32 noundef %53) #7
  %55 = load i32, ptr %15, align 4
  %56 = call ptr @LLVMBuildMemSet(ptr noundef %18, ptr noundef %19, ptr noundef %25, ptr noundef %54, i32 noundef %55)
  ret ptr %56
}