; Function Attrs: nounwind uwtable
define dso_local ptr @llvm_emit_memclear_size_align(ptr noundef %0, ptr noundef %1, i64 noundef %2, i32 noundef %3) local_unnamed_addr #0 {
  %5 = getelementptr inbounds i8, ptr %0, i64 64
  %6 = load ptr, ptr %5, align 8
  %7 = load ptr, ptr @type_char, align 8
  %8 = tail call ptr @llvm_get_type(ptr noundef %0, ptr noundef %7) #10
  %9 = tail call ptr @LLVMConstNull(ptr noundef %8) #10
  %10 = load ptr, ptr @type_usz, align 8
  %11 = tail call fastcc ptr @type_lowering(ptr noundef %10)
  %12 = tail call ptr @llvm_get_type(ptr noundef %0, ptr noundef %11) #10
  %13 = load i32, ptr %11, align 8
  %14 = icmp eq i32 %13, 31
  br i1 %14, label %15, label %19

15:                                               ; preds = %4
  %16 = getelementptr inbounds i8, ptr %11, i64 8
  %17 = load ptr, ptr %16, align 8
  %18 = load i32, ptr %17, align 8
  br label %19

19:                                               ; preds = %15, %4
  %.0 = phi i32 [ %18, %15 ], [ %13, %4 ]
  %20 = add i32 %.0, -3
  %21 = icmp ult i32 %20, 5
  %22 = zext i1 %21 to i32
  %23 = tail call ptr @LLVMConstInt(ptr noundef %12, i64 noundef %2, i32 noundef %22) #10
  %24 = tail call ptr @LLVMBuildMemSet(ptr noundef %6, ptr noundef %1, ptr noundef %9, ptr noundef %23, i32 noundef %3) #10
  ret ptr %24
}